(lp0
(lp1
S'05945'
p2
aI111452
aa(lp3
S'05951'
p4
aI116010
aa(lp5
S'06005'
p6
aI18469
aa(lp7
S'06006'
p8
aI42785
aa(lp9
S'05968'
p10
aI93419
aa(lp11
S'06064'
p12
aI211
aa(lp13
S'05957'
p14
aI149573
aa(lp15
S'05959'
p16
aI139338
aa(lp17
S'05961'
p18
aI134177
aa(lp19
S'05958'
p20
aI150114
aa(lp21
S'05956'
p22
aI164507
aa(lp23
S'05955'
p24
aI162704
aa(lp25
S'05952'
p26
aI168411
aa(lp27
S'05954'
p28
aI164491
aa(lp29
S'05953'
p30
aI160896
aa(lp31
S'05960'
p32
aI153048
aa(lp33
S'05963'
p34
aI145456
aa(lp35
S'06039'
p36
aI82154
aa(lp37
S'05962'
p38
aI142397
aa(lp39
S'05965'
p40
aI155502
aa(lp41
S'05966'
p42
aI151907
aa(lp43
S'05967'
p44
aI148562
aa(lp45
S'05964'
p46
aI159992
aa(lp47
S'06065'
p48
aI225065
aa(lp49
S'06073'
p50
aI161399
aa(lp51
S'06072'
p52
aI169532
aa(lp53
S'06071'
p54
aI182589
aa(lp55
S'06069'
p56
aI192734
aa(lp57
S'06075'
p58
aI165917
aa(lp59
S'06080'
p60
aI149181
aa(lp61
S'06074'
p62
aI156346
aa(lp63
S'06070'
p64
aI181924
aa(lp65
S'06078'
p66
aI158267
aa(lp67
S'06081'
p68
aI148626
aa(lp69
S'06083'
p70
aI159214
aa(lp71
S'06079'
p72
aI162437
aa(lp73
S'06077'
p74
aI165514
aa(lp75
S'06076'
p76
aI162080
aa(lp77
S'06068'
p78
aI202179
aa(lp79
S'06082'
p80
aI158217
aa(lp81
S'06067'
p82
aI227864
aa(lp83
S'06066'
p84
aI236723
aa(lp85
S'06096'
p86
aI4146
aa(lp87
S'06133'
p88
aI476
aa(lp89
S'06166'
p90
aI40988
aa(lp91
S'06084'
p92
aI150853
aa(lp93
S'06167'
p94
aI38973
aa(lp95
S'06086'
p96
aI137152
aa(lp97
S'06192'
p98
aI117120
aa(lp99
S'06087'
p100
aI139712
aa(lp101
S'06085'
p102
aI150836
aa(lp103
S'06088'
p104
aI150216
aa(lp105
S'06089'
p106
aI147530
aa(lp107
S'06095'
p108
aI131447
aa(lp109
S'06090'
p110
aI162467
aa(lp111
S'06093'
p112
aI163304
aa(lp113
S'06091'
p114
aI158504
aa(lp115
S'06196'
p116
aI185552
aa(lp117
S'06094'
p118
aI161186
aa(lp119
S'06197'
p120
aI191402
aa(lp121
S'06200'
p122
aI177313
aa(lp123
S'06199'
p124
aI193873
aa(lp125
S'06198'
p126
aI182263
aa(lp127
S'06202'
p128
aI166949
aa(lp129
S'06195'
p130
aI217799
aa(lp131
S'06201'
p132
aI179448
aa(lp133
S'06207'
p134
aI158105
aa(lp135
S'06204'
p136
aI162955
aa(lp137
S'06205'
p138
aI168056
aa(lp139
S'06193'
p140
aI251216
aa(lp141
S'06194'
p142
aI245314
aa(lp143
S'06210'
p144
aI158816
aa(lp145
S'06208'
p146
aI148050
aa(lp147
S'06211'
p148
aI149257
aa(lp149
S'06206'
p150
aI162339
aa(lp151
S'06203'
p152
aI177768
aa(lp153
S'06209'
p154
aI146606
aa(lp155
S'06092'
p156
aI197515
aa(lp157
S'06320'
p158
aI426
aa(lp159
S'06212'
p160
aI148584
aa(lp161
S'06224'
p162
aI95285
aa(lp163
S'06214'
p164
aI135250
aa(lp165
S'06295'
p166
aI35594
aa(lp167
S'06216'
p168
aI138280
aa(lp169
S'06213'
p170
aI154476
aa(lp171
S'06215'
p172
aI133369
aa(lp173
S'06217'
p174
aI145878
aa(lp175
S'06218'
p176
aI152233
aa(lp177
S'06219'
p178
aI149757
aa(lp179
S'06223'
p180
aI153631
aa(lp181
S'06220'
p182
aI174658
aa(lp183
S'06324'
p184
aI219319
aa(lp185
S'06326'
p186
aI172452
aa(lp187
S'06325'
p188
aI185677
aa(lp189
S'06222'
p190
aI158895
aa(lp191
S'06332'
p192
aI171798
aa(lp193
S'06333'
p194
aI156485
aa(lp195
S'06330'
p196
aI168984
aa(lp197
S'06221'
p198
aI174106
aa(lp199
S'06327'
p200
aI171715
aa.