(lp0
(lp1
S'07621'
p2
aI74033
aa(lp3
S'07498'
p4
aI170624
aa(lp5
S'07508'
p6
aI161032
aa(lp7
S'07638'
p8
aI20203
aa(lp9
S'07507'
p10
aI169665
aa(lp11
S'07622'
p12
aI177262
aa(lp13
S'07631'
p14
aI138477
aa(lp15
S'07630'
p16
aI138832
aa(lp17
S'07629'
p18
aI143816
aa(lp19
S'07632'
p20
aI144715
aa(lp21
S'07623'
p22
aI177562
aa(lp23
S'07624'
p24
aI164114
aa(lp25
S'07627'
p26
aI152382
aa(lp27
S'07628'
p28
aI159318
aa(lp29
S'07625'
p30
aI149564
aa(lp31
S'07633'
p32
aI121665
aa(lp33
S'07749'
p34
aI78249
aa(lp35
S'07626'
p36
aI161851
aa(lp37
S'07634'
p38
aI131065
aa(lp39
S'07635'
p40
aI152923
aa(lp41
S'07637'
p42
aI160352
aa(lp43
S'07636'
p44
aI162495
aa(lp45
S'07750'
p46
aI159957
aa(lp47
S'07753'
p48
aI158929
aa(lp49
S'07767'
p50
aI44446
aa(lp51
S'07759'
p52
aI142678
aa(lp53
S'07751'
p54
aI170845
aa(lp55
S'07763'
p56
aI122614
aa(lp57
S'07761'
p58
aI127554
aa(lp59
S'07755'
p60
aI158856
aa(lp61
S'07752'
p62
aI163989
aa(lp63
S'07766'
p64
aI153548
aa(lp65
S'07758'
p66
aI151186
aa(lp67
S'07764'
p68
aI140073
aa(lp69
S'07757'
p70
aI147258
aa(lp71
S'07760'
p72
aI129844
aa(lp73
S'07762'
p74
aI141284
aa(lp75
S'07756'
p76
aI150113
aa(lp77
S'07876'
p78
aI73638
aa(lp79
S'07754'
p80
aI170864
aa(lp81
S'07878'
p82
aI154266
aa(lp83
S'07765'
p84
aI179172
aa(lp85
S'07883'
p86
aI153323
aa(lp87
S'07879'
p88
aI158465
aa(lp89
S'07877'
p90
aI164541
aa(lp91
S'07880'
p92
aI162390
aa(lp93
S'07888'
p94
aI137089
aa(lp95
S'07886'
p96
aI135795
aa(lp97
S'07896'
p98
aI27492
aa(lp99
S'07894'
p100
aI159941
aa(lp101
S'07890'
p102
aI140482
aa(lp103
S'07881'
p104
aI160747
aa(lp105
S'07891'
p106
aI125038
aa(lp107
S'07897'
p108
aI24913
aa(lp109
S'07887'
p110
aI146734
aa(lp111
S'07898'
p112
aI20939
aa(lp113
S'07884'
p114
aI149113
aa(lp115
S'07895'
p116
aI71754
aa(lp117
S'07885'
p118
aI155576
aa(lp119
S'07889'
p120
aI133897
aa(lp121
S'07892'
p122
aI147383
aa(lp123
S'07882'
p124
aI167202
aa(lp125
S'07899'
p126
aI31079
aa(lp127
S'07900'
p128
aI25768
aa(lp129
S'07902'
p130
aI9927
aa(lp131
S'07901'
p132
aI34710
aa(lp133
S'07893'
p134
aI177576
aa(lp135
S'08004'
p136
aI90764
aa(lp137
S'08005'
p138
aI164489
aa(lp139
S'08006'
p140
aI149796
aa(lp141
S'08011'
p142
aI151144
aa(lp143
S'08012'
p144
aI145466
aa(lp145
S'08008'
p146
aI144407
aa(lp147
S'08015'
p148
aI147783
aa(lp149
S'08020'
p150
aI133959
aa(lp151
S'08016'
p152
aI159001
aa(lp153
S'08007'
p154
aI163312
aa(lp155
S'08013'
p156
aI149952
aa(lp157
S'08017'
p158
aI138786
aa(lp159
S'08014'
p160
aI148239
aa(lp161
S'08018'
p162
aI142492
aa(lp163
S'08024'
p164
aI151364
aa(lp165
S'08023'
p166
aI171922
aa(lp167
S'08019'
p168
aI154042
aa(lp169
S'08009'
p170
aI170629
aa(lp171
S'08022'
p172
aI159814
aa(lp173
S'08010'
p174
aI163590
aa(lp175
S'08031'
p176
aI47376
aa(lp177
S'08021'
p178
aI173624
aa(lp179
S'08131'
p180
aI64211
aa(lp181
S'08025'
p182
aI160557
aa(lp183
S'08027'
p184
aI143836
aa(lp185
S'08026'
p186
aI156007
aa(lp187
S'08030'
p188
aI152970
aa(lp189
S'08028'
p190
aI136153
aa(lp191
S'08029'
p192
aI145014
aa(lp193
S'08132'
p194
aI165867
aa(lp195
S'08134'
p196
aI173721
aa(lp197
S'08133'
p198
aI153123
aa(lp199
S'08135'
p200
aI147379
aa.