(lp0
(lp1
S'08140'
p2
aI151428
aa(lp3
S'08141'
p4
aI141264
aa(lp5
S'08137'
p6
aI159815
aa(lp7
S'08142'
p8
aI141115
aa(lp9
S'08138'
p10
aI154877
aa(lp11
S'08139'
p12
aI148555
aa(lp13
S'08143'
p14
aI176499
aa(lp15
S'08136'
p16
aI170815
aa(lp17
S'08144'
p18
aI145912
aa(lp19
S'08145'
p20
aI147246
aa(lp21
S'08159'
p22
aI33721
aa(lp23
S'08147'
p24
aI142555
aa(lp25
S'08259'
p26
aI64777
aa(lp27
S'08148'
p28
aI147708
aa(lp29
S'08146'
p30
aI171238
aa(lp31
S'08150'
p32
aI157719
aa(lp33
S'08151'
p34
aI168869
aa(lp35
S'08149'
p36
aI157124
aa(lp37
S'08152'
p38
aI166649
aa(lp39
S'08155'
p40
aI165030
aa(lp41
S'08156'
p42
aI161918
aa(lp43
S'08153'
p44
aI183779
aa(lp45
S'08157'
p46
aI177453
aa(lp47
S'08260'
p48
aI175718
aa(lp49
S'08261'
p50
aI159574
aa(lp51
S'08154'
p52
aI178032
aa(lp53
S'08262'
p54
aI160898
aa(lp55
S'08264'
p56
aI161158
aa(lp57
S'08158'
p58
aI184838
aa(lp59
S'08267'
p60
aI158314
aa(lp61
S'08265'
p62
aI163449
aa(lp63
S'08263'
p64
aI155437
aa(lp65
S'08268'
p66
aI157607
aa(lp67
S'08269'
p68
aI136684
aa(lp69
S'08272'
p70
aI171042
aa(lp71
S'08270'
p72
aI149253
aa(lp73
S'08271'
p74
aI145748
aa(lp75
S'08266'
p76
aI164758
aa(lp77
S'08273'
p78
aI151715
aa(lp79
S'08386'
p80
aI32337
aa(lp81
S'08277'
p82
aI141668
aa(lp83
S'08274'
p84
aI157297
aa(lp85
S'08279'
p86
aI154498
aa(lp87
S'08275'
p88
aI163573
aa(lp89
S'08276'
p90
aI148894
aa(lp91
S'08280'
p92
aI164248
aa(lp93
S'08278'
p94
aI155646
aa(lp95
S'08281'
p96
aI164232
aa(lp97
S'08283'
p98
aI172331
aa(lp99
S'08284'
p100
aI168804
aa(lp101
S'08287'
p102
aI205655
aa(lp103
S'08285'
p104
aI175819
aa(lp105
S'08387'
p106
aI170292
aa(lp107
S'08282'
p108
aI181241
aa(lp109
S'08388'
p110
aI149237
aa(lp111
S'08390'
p112
aI145398
aa(lp113
S'08286'
p114
aI182286
aa(lp115
S'08389'
p116
aI175388
aa(lp117
S'08391'
p118
aI159034
aa(lp119
S'08392'
p120
aI147775
aa(lp121
S'08398'
p122
aI146940
aa(lp123
S'08395'
p124
aI144342
aa(lp125
S'08396'
p126
aI147649
aa(lp127
S'08399'
p128
aI151039
aa(lp129
S'08397'
p130
aI145971
aa(lp131
S'08393'
p132
aI155106
aa(lp133
S'08402'
p134
aI173454
aa(lp135
S'08394'
p136
aI167891
aa(lp137
S'08400'
p138
aI165078
aa(lp139
S'08401'
p140
aI175838
aa(lp141
S'08404'
p142
aI153179
aa(lp143
S'08514'
p144
aI20115
aa(lp145
S'08407'
p146
aI151018
aa(lp147
S'08403'
p148
aI164546
aa(lp149
S'08406'
p150
aI151386
aa(lp151
S'08415'
p152
aI157015
aa(lp153
S'08405'
p154
aI143326
aa(lp155
S'08408'
p156
aI161865
aa(lp157
S'08410'
p158
aI165899
aa(lp159
S'08409'
p160
aI166209
aa(lp161
S'08412'
p162
aI168467
aa(lp163
S'08413'
p164
aI191688
aa(lp165
S'08515'
p166
aI159059
aa(lp167
S'08518'
p168
aI157697
aa(lp169
S'08519'
p170
aI144171
aa(lp171
S'08411'
p172
aI187497
aa(lp173
S'08516'
p174
aI158847
aa(lp175
S'08414'
p176
aI198319
aa(lp177
S'08526'
p178
aI143089
aa(lp179
S'08517'
p180
aI159849
aa(lp181
S'08520'
p182
aI151601
aa(lp183
S'08525'
p184
aI142897
aa(lp185
S'08524'
p186
aI148846
aa(lp187
S'08521'
p188
aI154491
aa(lp189
S'08523'
p190
aI164245
aa(lp191
S'08528'
p192
aI165613
aa(lp193
S'08522'
p194
aI165209
aa(lp195
S'08529'
p196
aI170771
aa(lp197
S'08527'
p198
aI155837
aa(lp199
S'08530'
p200
aI162209
aa(lp201
S'08536'
p202
aI154887
aa(lp203
S'08641'
p204
aI19594
aa(lp205
S'08535'
p206
aI150360
aa(lp207
S'08532'
p208
aI154259
aa(lp209
S'08531'
p210
aI159019
aa(lp211
S'08533'
p212
aI163482
aa(lp213
S'08537'
p214
aI164435
aa(lp215
S'08534'
p216
aI156181
aa(lp217
S'08540'
p218
aI182788
aa(lp219
S'08538'
p220
aI163132
aa(lp221
S'08541'
p222
aI166384
aa(lp223
S'08544'
p224
aI130431
aa(lp225
S'08539'
p226
aI175012
aa(lp227
S'08642'
p228
aI160008
aa(lp229
S'08643'
p230
aI150512
aa(lp231
S'08542'
p232
aI180423
aa(lp233
S'08645'
p234
aI141673
aa(lp235
S'08646'
p236
aI154566
aa(lp237
S'08543'
p238
aI204214
aa(lp239
S'08644'
p240
aI171932
aa(lp241
S'08651'
p242
aI167386
aa(lp243
S'08648'
p244
aI155373
aa(lp245
S'08649'
p246
aI162554
aa(lp247
S'08647'
p248
aI153485
aa(lp249
S'08654'
p250
aI146529
aa(lp251
S'08655'
p252
aI160935
aa(lp253
S'08657'
p254
aI158035
aa(lp255
S'08658'
p256
aI157171
aa(lp257
S'08656'
p258
aI162065
aa(lp259
S'08653'
p260
aI150363
aa(lp261
S'08650'
p262
aI170851
aa(lp263
S'08652'
p264
aI155368
aa(lp265
S'08672'
p266
aI16504
aa(lp267
S'08769'
p268
aI3
aa(lp269
S'08660'
p270
aI157205
aa(lp271
S'08659'
p272
aI165229
aa(lp273
S'08662'
p274
aI154043
aa(lp275
S'08661'
p276
aI159999
aa(lp277
S'08663'
p278
aI156498
aa(lp279
S'08664'
p280
aI169872
aa(lp281
S'08770'
p282
aI161080
aa(lp283
S'08773'
p284
aI150576
aa(lp285
S'08771'
p286
aI162549
aa(lp287
S'08667'
p288
aI180863
aa(lp289
S'08668'
p290
aI177914
aa(lp291
S'08772'
p292
aI172788
aa(lp293
S'08665'
p294
aI167615
aa(lp295
S'08774'
p296
aI147546
aa(lp297
S'08776'
p298
aI147971
aa(lp299
S'08775'
p300
aI142105
aa(lp301
S'08669'
p302
aI174362
aa(lp303
S'08666'
p304
aI170147
aa(lp305
S'08670'
p306
aI197805
aa(lp307
S'08671'
p308
aI220036
aa(lp309
S'08778'
p310
aI155481
aa(lp311
S'08777'
p312
aI167753
aa(lp313
S'08780'
p314
aI158417
aa(lp315
S'08781'
p316
aI146891
aa(lp317
S'08782'
p318
aI149127
aa(lp319
S'08779'
p320
aI159641
aa(lp321
S'08783'
p322
aI171508
aa(lp323
S'08790'
p324
aI144925
aa(lp325
S'08786'
p326
aI144353
aa(lp327
S'08787'
p328
aI157400
aa(lp329
S'08788'
p330
aI156685
aa(lp331
S'08784'
p332
aI157112
aa(lp333
S'08789'
p334
aI153349
aa(lp335
S'08785'
p336
aI152044
aa(lp337
S'08791'
p338
aI164855
aa(lp339
S'08792'
p340
aI171751
aa(lp341
S'08793'
p342
aI168409
aa(lp343
S'08794'
p344
aI161057
aa(lp345
S'08897'
p346
aI110924
aa(lp347
S'08795'
p348
aI173989
aa(lp349
S'08797'
p350
aI181068
aa(lp351
S'08798'
p352
aI192753
aa(lp353
S'08800'
p354
aI187947
aa(lp355
S'08796'
p356
aI169749
aa(lp357
S'08898'
p358
aI159910
aa(lp359
S'08902'
p360
aI144742
aa(lp361
S'08904'
p362
aI148126
aa(lp363
S'08901'
p364
aI142854
aa(lp365
S'08906'
p366
aI143681
aa(lp367
S'08903'
p368
aI152736
aa(lp369
S'08900'
p370
aI176758
aa(lp371
S'08899'
p372
aI155464
aa(lp373
S'08799'
p374
aI207090
aa(lp375
S'08907'
p376
aI157519
aa(lp377
S'08905'
p378
aI150816
aa(lp379
S'08908'
p380
aI147826
aa(lp381
S'08910'
p382
aI155441
aa(lp383
S'08909'
p384
aI142359
aa(lp385
S'08911'
p386
aI166248
aa(lp387
S'08916'
p388
aI158450
aa(lp389
S'08928'
p390
aI43276
aa(lp391
S'08912'
p392
aI147973
aa(lp393
S'08914'
p394
aI160409
aa(lp395
S'08915'
p396
aI163701
aa(lp397
S'08913'
p398
aI165082
aa(lp399
S'08918'
p400
aI160385
aa(lp401
S'08917'
p402
aI168157
aa(lp403
S'08919'
p404
aI158874
aa(lp405
S'08920'
p406
aI160652
aa(lp407
S'08921'
p408
aI162990
aa(lp409
S'08923'
p410
aI177114
aa(lp411
S'08924'
p412
aI185214
aa(lp413
S'09025'
p414
aI96720
aa(lp415
S'08922'
p416
aI161789
aa(lp417
S'08925'
p418
aI177625
aa(lp419
S'09026'
p420
aI153244
aa(lp421
S'08926'
p422
aI190581
aa(lp423
S'09027'
p424
aI149145
aa(lp425
S'09028'
p426
aI150110
aa(lp427
S'09030'
p428
aI142804
aa(lp429
S'08927'
p430
aI208360
aa(lp431
S'09031'
p432
aI156260
aa(lp433
S'09032'
p434
aI161606
aa(lp435
S'09035'
p436
aI144257
aa(lp437
S'09029'
p438
aI165899
aa(lp439
S'09033'
p440
aI152346
aa(lp441
S'09036'
p442
aI149512
aa(lp443
S'09037'
p444
aI155689
aa(lp445
S'09040'
p446
aI149291
aa(lp447
S'09038'
p448
aI155849
aa(lp449
S'09039'
p450
aI151778
aa(lp451
S'09034'
p452
aI152097
aa(lp453
S'09042'
p454
aI175706
aa(lp455
S'09041'
p456
aI170478
aa(lp457
S'09152'
p458
aI12943
aa(lp459
S'09048'
p460
aI153232
aa(lp461
S'09044'
p462
aI163195
aa(lp463
S'09047'
p464
aI171693
aa(lp465
S'09046'
p466
aI165189
aa(lp467
S'09043'
p468
aI167332
aa(lp469
S'09045'
p470
aI157636
aa(lp471
S'09049'
p472
aI151279
aa(lp473
S'09050'
p474
aI178991
aa(lp475
S'09051'
p476
aI168164
aa(lp477
S'09153'
p478
aI162782
aa(lp479
S'09054'
p480
aI189817
aa(lp481
S'09155'
p482
aI149095
aa(lp483
S'09053'
p484
aI184582
aa(lp485
S'09056'
p486
aI196677
aa(lp487
S'09154'
p488
aI156728
aa(lp489
S'09156'
p490
aI150568
aa(lp491
S'09052'
p492
aI179004
aa(lp493
S'09157'
p494
aI160716
aa(lp495
S'09055'
p496
aI199408
aa(lp497
S'09158'
p498
aI161178
aa(lp499
S'09159'
p500
aI166018
aa(lp501
S'09163'
p502
aI144361
aa(lp503
S'09162'
p504
aI140130
aa(lp505
S'09160'
p506
aI151205
aa(lp507
S'09164'
p508
aI153601
aa(lp509
S'09168'
p510
aI154191
aa(lp511
S'09167'
p512
aI150991
aa(lp513
S'09166'
p514
aI166899
aa(lp515
S'09161'
p516
aI145913
aa(lp517
S'09165'
p518
aI165226
aa(lp519
S'09169'
p520
aI172198
aa(lp521
S'09170'
p522
aI161412
aa(lp523
S'09172'
p524
aI151204
aa(lp525
S'09280'
p526
aI5373
aa(lp527
S'09175'
p528
aI153662
aa(lp529
S'09171'
p530
aI176346
aa(lp531
S'09176'
p532
aI153830
aa(lp533
S'09174'
p534
aI162751
aa(lp535
S'09173'
p536
aI169077
aa(lp537
S'09178'
p538
aI178608
aa(lp539
S'09177'
p540
aI172440
aa(lp541
S'09184'
p542
aI140938
aa(lp543
S'09179'
p544
aI174045
aa(lp545
S'09281'
p546
aI152716
aa(lp547
S'09181'
p548
aI186970
aa(lp549
S'09282'
p550
aI162940
aa(lp551
S'09286'
p552
aI146681
aa(lp553
S'09283'
p554
aI159892
aa(lp555
S'09284'
p556
aI148426
aa(lp557
S'09180'
p558
aI182408
aa(lp559
S'09182'
p560
aI192341
aa(lp561
S'09285'
p562
aI153188
aa(lp563
S'09291'
p564
aI154190
aa(lp565
S'09288'
p566
aI152679
aa(lp567
S'09183'
p568
aI205542
aa(lp569
S'09290'
p570
aI150898
aa(lp571
S'09287'
p572
aI164297
aa(lp573
S'09292'
p574
aI151594
aa(lp575
S'09289'
p576
aI147936
aa(lp577
S'09294'
p578
aI168245
aa(lp579
S'09293'
p580
aI159884
aa(lp581
S'09295'
p582
aI150568
aa(lp583
S'09296'
p584
aI147699
aa(lp585
S'09297'
p586
aI161661
aa(lp587
S'09313'
p588
aI56552
aa(lp589
S'09298'
p590
aI153662
aa(lp591
S'09299'
p592
aI160100
aa(lp593
S'09303'
p594
aI152774
aa(lp595
S'09302'
p596
aI154452
aa(lp597
S'09301'
p598
aI165257
aa(lp599
S'09304'
p600
aI149952
aa(lp601
S'09300'
p602
aI164946
aa(lp603
S'09305'
p604
aI158623
aa(lp605
S'09307'
p606
aI172976
aa(lp607
S'09306'
p608
aI160575
aa(lp609
S'09408'
p610
aI141927
aa(lp611
S'09309'
p612
aI192879
aa(lp613
S'09310'
p614
aI175940
aa(lp615
S'09409'
p616
aI168943
aa(lp617
S'09308'
p618
aI175922
aa(lp619
S'09411'
p620
aI146320
aa(lp621
S'09410'
p622
aI158293
aa(lp623
S'09311'
p624
aI194247
aa(lp625
S'09312'
p626
aI206238
aa(lp627
S'09412'
p628
aI155631
aa(lp629
S'09416'
p630
aI149165
aa(lp631
S'09418'
p632
aI164034
aa(lp633
S'09415'
p634
aI153769
aa(lp635
S'09419'
p636
aI145610
aa(lp637
S'09413'
p638
aI202132
aa(lp639
S'09414'
p640
aI162835
aa(lp641
S'09420'
p642
aI164410
aa(lp643
S'09421'
p644
aI163838
aa(lp645
S'09417'
p646
aI154817
aa(lp647
S'09423'
p648
aI140621
aa(lp649
S'09422'
p650
aI145950
aa(lp651
S'09425'
p652
aI155334
aa(lp653
S'09424'
p654
aI169100
aa(lp655
S'09426'
p656
aI154444
aa(lp657
S'09430'
p658
aI163459
aa(lp659
S'09429'
p660
aI166755
aa(lp661
S'09428'
p662
aI168467
aa(lp663
S'09431'
p664
aI157910
aa(lp665
S'09427'
p666
aI167190
aa(lp667
S'09432'
p668
aI165319
aa(lp669
S'09536'
p670
aI87007
aa(lp671
S'09434'
p672
aI166481
aa(lp673
S'09433'
p674
aI164156
aa(lp675
S'09436'
p676
aI182602
aa(lp677
S'09437'
p678
aI177840
aa(lp679
S'09435'
p680
aI192517
aa(lp681
S'09438'
p682
aI183554
aa(lp683
S'09537'
p684
aI163357
aa(lp685
S'09540'
p686
aI150708
aa(lp687
S'09440'
p688
aI205765
aa(lp689
S'09538'
p690
aI155560
aa(lp691
S'09539'
p692
aI153838
aa(lp693
S'09439'
p694
aI198296
aa(lp695
S'09541'
p696
aI191856
aa(lp697
S'09542'
p698
aI150166
aa(lp699
S'09549'
p700
aI162871
aa(lp701
S'09543'
p702
aI152295
aa(lp703
S'09544'
p704
aI146454
aa(lp705
S'09545'
p706
aI144808
aa(lp707
S'09548'
p708
aI142994
aa(lp709
S'09547'
p710
aI162153
aa(lp711
S'09551'
p712
aI146241
aa(lp713
S'09552'
p714
aI143163
aa(lp715
S'09546'
p716
aI143011
aa(lp717
S'09553'
p718
aI171126
aa(lp719
S'09555'
p720
aI157471
aa(lp721
S'09556'
p722
aI162995
aa(lp723
S'09557'
p724
aI150952
aa(lp725
S'09559'
p726
aI163994
aa(lp727
S'09554'
p728
aI156075
aa(lp729
S'09569'
p730
aI133986
aa(lp731
S'09560'
p732
aI183879
aa(lp733
S'09561'
p734
aI185350
aa(lp735
S'09562'
p736
aI171863
aa(lp737
S'09558'
p738
aI158821
aa(lp739
S'09564'
p740
aI172346
aa(lp741
S'09563'
p742
aI165504
aa(lp743
S'09550'
p744
aI388866
aa(lp745
S'09565'
p746
aI172054
aa(lp747
S'09665'
p748
aI146070
aa(lp749
S'09664'
p750
aI166751
aa(lp751
S'09666'
p752
aI164524
aa(lp753
S'09668'
p754
aI146389
aa(lp755
S'09667'
p756
aI158438
aa(lp757
S'09566'
p758
aI197740
aa(lp759
S'09669'
p760
aI156555
aa(lp761
S'09567'
p762
aI182951
aa(lp763
S'09670'
p764
aI153882
aa(lp765
S'09676'
p766
aI140626
aa(lp767
S'09675'
p768
aI148500
aa(lp769
S'09672'
p770
aI140961
aa(lp771
S'09673'
p772
aI143292
aa(lp773
S'09568'
p774
aI213646
aa(lp775
S'09674'
p776
aI156381
aa(lp777
S'09678'
p778
aI155089
aa(lp779
S'09677'
p780
aI151193
aa(lp781
S'09680'
p782
aI149147
aa(lp783
S'09671'
p784
aI155066
aa(lp785
S'09679'
p786
aI159840
aa(lp787
S'09681'
p788
aI145547
aa(lp789
S'09697'
p790
aI27278
aa(lp791
S'09683'
p792
aI158953
aa(lp793
S'09682'
p794
aI166556
aa(lp795
S'09791'
p796
aI28421
aa(lp797
S'09684'
p798
aI152867
aa(lp799
S'09687'
p800
aI178003
aa(lp801
S'09686'
p802
aI173237
aa(lp803
S'09688'
p804
aI178641
aa(lp805
S'09685'
p806
aI168602
aa(lp807
S'09689'
p808
aI179024
aa(lp809
S'09691'
p810
aI164286
aa(lp811
S'09690'
p812
aI156007
aa(lp813
S'09793'
p814
aI165874
aa(lp815
S'09795'
p816
aI152342
aa(lp817
S'09692'
p818
aI163573
aa(lp819
S'09792'
p820
aI162266
aa(lp821
S'09794'
p822
aI152012
aa(lp823
S'09693'
p824
aI184726
aa(lp825
S'09796'
p826
aI162984
aa(lp827
S'09694'
p828
aI191191
aa(lp829
S'09695'
p830
aI194582
aa(lp831
S'09696'
p832
aI205655
aa(lp833
S'09799'
p834
aI153941
aa(lp835
S'09797'
p836
aI212776
aa(lp837
S'09798'
p838
aI153388
aa(lp839
S'09803'
p840
aI156902
aa(lp841
S'09801'
p842
aI148120
aa(lp843
S'09805'
p844
aI138327
aa(lp845
S'09800'
p846
aI150765
aa(lp847
S'09804'
p848
aI158512
aa(lp849
S'09806'
p850
aI143059
aa(lp851
S'09802'
p852
aI151480
aa(lp853
S'09807'
p854
aI152784
aa(lp855
S'09808'
p856
aI151429
aa(lp857
S'09809'
p858
aI163698
aa(lp859
S'09810'
p860
aI168321
aa(lp861
S'09811'
p862
aI164820
aa(lp863
S'09919'
p864
aI18408
aa(lp865
S'09814'
p866
aI169582
aa(lp867
S'09813'
p868
aI180576
aa(lp869
S'09812'
p870
aI176386
aa(lp871
S'09817'
p872
aI181535
aa(lp873
S'09816'
p874
aI189641
aa(lp875
S'09818'
p876
aI176171
aa(lp877
S'09815'
p878
aI173451
aa(lp879
S'09819'
p880
aI168000
aa(lp881
S'09820'
p882
aI166053
aa(lp883
S'09923'
p884
aI152046
aa(lp885
S'09821'
p886
aI172224
aa(lp887
S'09822'
p888
aI184372
aa(lp889
S'09823'
p890
aI186549
aa(lp891
S'09920'
p892
aI152696
aa(lp893
S'09825'
p894
aI185378
aa(lp895
S'09922'
p896
aI156461
aa(lp897
S'09921'
p898
aI196757
aa(lp899
S'09824'
p900
aI192035
aa(lp901
S'09925'
p902
aI154533
aa(lp903
S'09924'
p904
aI157179
aa(lp905
S'09927'
p906
aI141114
aa(lp907
S'09926'
p908
aI149864
aa(lp909
S'09928'
p910
aI148750
aa(lp911
S'09931'
p912
aI152738
aa(lp913
S'09932'
p914
aI143190
aa(lp915
S'09933'
p916
aI144555
aa(lp917
S'09930'
p918
aI149915
aa(lp919
S'09929'
p920
aI160901
aa(lp921
S'09934'
p922
aI148143
aa(lp923
S'09937'
p924
aI169367
aa(lp925
S'09936'
p926
aI167315
aa(lp927
S'09935'
p928
aI161244
aa(lp929
S'09938'
p930
aI169066
aa(lp931
S'09939'
p932
aI177700
aa(lp933
S'09942'
p934
aI176431
aa(lp935
S'09940'
p936
aI192131
aa(lp937
S'09944'
p938
aI176451
aa(lp939
S'09943'
p940
aI189475
aa(lp941
S'09953'
p942
aI111324
aa(lp943
S'10029'
p944
aI12170
aa(lp945
S'10030'
p946
aI11055
aa(lp947
S'09950'
p948
aI188694
aa(lp949
S'09941'
p950
aI180896
aa(lp951
S'09946'
p952
aI172438
aa(lp953
S'09945'
p954
aI180392
aa(lp955
S'10031'
p956
aI28173
aa(lp957
S'09947'
p958
aI177908
aa(lp959
S'10033'
p960
aI3606
aa(lp961
S'09948'
p962
aI176079
aa(lp963
S'10037'
p964
aI4055
aa(lp965
S'10034'
p966
aI29366
aa(lp967
S'10035'
p968
aI24414
aa(lp969
S'10036'
p970
aI15966
aa(lp971
S'10040'
p972
aI3975
aa(lp973
S'10039'
p974
aI15124
aa(lp975
S'10038'
p976
aI28282
aa(lp977
S'10041'
p978
aI23049
aa(lp979
S'09949'
p980
aI188431
aa(lp981
S'10043'
p982
aI2728
aa(lp983
S'10042'
p984
aI18152
aa(lp985
S'09951'
p986
aI193723
aa(lp987
S'10044'
p988
aI20898
aa(lp989
S'10045'
p990
aI16892
aa(lp991
S'10046'
p992
aI23718
aa(lp993
S'09952'
p994
aI208296
aa(lp995
S'10048'
p996
aI147360
aa(lp997
S'10049'
p998
aI151729
aa(lp999
S'10050'
p1000
aI154513
aa.